target datalayout = "e-m:e-p270:32:32-p271:32:32-p272:64:64-i64:64-i128:128-f80:128-n8:16:32:64-S128"
target triple = "x86_64-pc-linux-gnu"

%struct._SPI_connection = type { i64, ptr, i32, %struct.slist_head, ptr, ptr, ptr, i32, ptr, i8, i8, i64, ptr, i32 }
%struct.slist_head = type { %struct.slist_node }
%struct.slist_node = type { ptr }
%struct.SavedTransactionCharacteristics = type { i32, i8, i8 }
%struct.__jmp_buf_tag = type { [8 x i64], i32, %struct.__sigset_t }
%struct.__sigset_t = type { [16 x i64] }

@.str.1 = private unnamed_addr constant [6 x i8] c"spi.c\00", align 1
@_SPI_current = internal global ptr null, align 8
@error_context_stack = external global ptr, align 8
@CurrentMemoryContext = external global ptr, align 8
@.str.53 = private unnamed_addr constant [32 x i8] c"invalid transaction termination\00", align 1
@__func__._SPI_commit = private unnamed_addr constant [12 x i8] c"_SPI_commit\00", align 1
@.str.54 = private unnamed_addr constant [47 x i8] c"cannot commit while a subtransaction is active\00", align 1
@PG_exception_stack = external global ptr, align 8

; Function Attrs: inlinehint nounwind uwtable
define internal ptr @MemoryContextSwitchTo(ptr noundef %0) #4 {
  %2 = alloca ptr, align 8
  %3 = alloca ptr, align 8
  store ptr %0, ptr %2, align 8
  call void @llvm.lifetime.start.p0(i64 8, ptr %3) #9
  %4 = load ptr, ptr @CurrentMemoryContext, align 8
  store ptr %4, ptr %3, align 8
  %5 = load ptr, ptr %2, align 8
  store ptr %5, ptr @CurrentMemoryContext, align 8
  %6 = load ptr, ptr %3, align 8
  call void @llvm.lifetime.end.p0(i64 8, ptr %3) #9
  ret ptr %6
}

; Function Attrs: nounwind uwtable
define internal void @_SPI_commit(i1 noundef zeroext %0) #0 {
  %2 = alloca i8, align 1
  %3 = alloca ptr, align 8
  %4 = alloca %struct.SavedTransactionCharacteristics, align 4
  %5 = alloca ptr, align 8
  %6 = alloca ptr, align 8
  %7 = alloca [1 x %struct.__jmp_buf_tag], align 16
  %8 = alloca i8, align 1
  %9 = alloca ptr, align 8
  %10 = zext i1 %0 to i8
  store i8 %10, ptr %2, align 1
  call void @llvm.lifetime.start.p0(i64 8, ptr %3) #9
  %11 = load ptr, ptr @CurrentMemoryContext, align 8
  store ptr %11, ptr %3, align 8
  call void @llvm.lifetime.start.p0(i64 8, ptr %4) #9
  %12 = load ptr, ptr @_SPI_current, align 8
  %13 = getelementptr inbounds nuw %struct._SPI_connection, ptr %12, i32 0, i32 9
  %14 = load i8, ptr %13, align 8, !range !4, !noundef !5
  %15 = trunc i8 %14 to i1
  br i1 %15, label %16, label %28

16:                                               ; preds = %1
  br label %17

17:                                               ; preds = %16
  br i1 true, label %18, label %20

18:                                               ; preds = %17
  %19 = call zeroext i1 @errstart_cold(i32 noundef 21, ptr noundef null) #10
  br i1 %19, label %22, label %25

20:                                               ; preds = %17
  %21 = call zeroext i1 @errstart(i32 noundef 21, ptr noundef null)
  br i1 %21, label %22, label %25

22:                                               ; preds = %20, %18
  %23 = call i32 @errcode(i32 noundef 1282)
  %24 = call i32 (ptr, ...) @errmsg(ptr noundef @.str.53)
  call void @errfinish(ptr noundef @.str.1, i32 noundef 241, ptr noundef @__func__._SPI_commit)
  br label %25

25:                                               ; preds = %22, %20, %18
  unreachable

26:                                               ; No predecessors!
  br label %27

27:                                               ; preds = %26
  br label %28

28:                                               ; preds = %27, %1
  %29 = call zeroext i1 @IsSubTransaction()
  br i1 %29, label %30, label %42

30:                                               ; preds = %28
  br label %31

31:                                               ; preds = %30
  br i1 true, label %32, label %34

32:                                               ; preds = %31
  %33 = call zeroext i1 @errstart_cold(i32 noundef 21, ptr noundef null) #10
  br i1 %33, label %36, label %39

34:                                               ; preds = %31
  %35 = call zeroext i1 @errstart(i32 noundef 21, ptr noundef null)
  br i1 %35, label %36, label %39

36:                                               ; preds = %34, %32
  %37 = call i32 @errcode(i32 noundef 1282)
  %38 = call i32 (ptr, ...) @errmsg(ptr noundef @.str.54)
  call void @errfinish(ptr noundef @.str.1, i32 noundef 256, ptr noundef @__func__._SPI_commit)
  br label %39

39:                                               ; preds = %36, %34, %32
  unreachable

40:                                               ; No predecessors!
  br label %41

41:                                               ; preds = %40
  br label %42

42:                                               ; preds = %41, %28
  %43 = load i8, ptr %2, align 1, !range !4, !noundef !5
  %44 = trunc i8 %43 to i1
  br i1 %44, label %45, label %46

45:                                               ; preds = %42
  call void @SaveTransactionCharacteristics(ptr noundef %4)
  br label %46

46:                                               ; preds = %45, %42
  br label %47

47:                                               ; preds = %46
  call void @llvm.lifetime.start.p0(i64 8, ptr %5) #9
  %48 = load ptr, ptr @PG_exception_stack, align 8
  store ptr %48, ptr %5, align 8
  call void @llvm.lifetime.start.p0(i64 8, ptr %6) #9
  %49 = load ptr, ptr @error_context_stack, align 8
  store ptr %49, ptr %6, align 8
  call void @llvm.lifetime.start.p0(i64 200, ptr %7) #9
  call void @llvm.lifetime.start.p0(i64 1, ptr %8) #9
  store i8 0, ptr %8, align 1
  %50 = getelementptr inbounds [1 x %struct.__jmp_buf_tag], ptr %7, i64 0, i64 0
  %51 = call i32 @__sigsetjmp(ptr noundef %50, i32 noundef 0) #11
  %52 = icmp eq i32 %51, 0
  br i1 %52, label %53, label %64

53:                                               ; preds = %47
  store ptr %7, ptr @PG_exception_stack, align 8
  %54 = load ptr, ptr @_SPI_current, align 8
  %55 = getelementptr inbounds nuw %struct._SPI_connection, ptr %54, i32 0, i32 10
  store i8 1, ptr %55, align 1
  call void @HoldPinnedPortals()
  call void @ForgetPortalSnapshots()
  call void @CommitTransactionCommand()
  call void @StartTransactionCommand()
  %56 = load i8, ptr %2, align 1, !range !4, !noundef !5
  %57 = trunc i8 %56 to i1
  br i1 %57, label %58, label %59

58:                                               ; preds = %53
  call void @RestoreTransactionCharacteristics(ptr noundef %4)
  br label %59

59:                                               ; preds = %58, %53
  %60 = load ptr, ptr %3, align 8
  %61 = call ptr @MemoryContextSwitchTo(ptr noundef %60)
  %62 = load ptr, ptr @_SPI_current, align 8
  %63 = getelementptr inbounds nuw %struct._SPI_connection, ptr %62, i32 0, i32 10
  store i8 0, ptr %63, align 1
  br label %79

64:                                               ; preds = %47
  %65 = load ptr, ptr %5, align 8
  store ptr %65, ptr @PG_exception_stack, align 8
  %66 = load ptr, ptr %6, align 8
  store ptr %66, ptr @error_context_stack, align 8
  call void @llvm.lifetime.start.p0(i64 8, ptr %9) #9
  %67 = load ptr, ptr %3, align 8
  %68 = call ptr @MemoryContextSwitchTo(ptr noundef %67)
  %69 = call ptr @CopyErrorData()
  store ptr %69, ptr %9, align 8
  call void @FlushErrorState()
  call void @AbortCurrentTransaction()
  call void @StartTransactionCommand()
  %70 = load i8, ptr %2, align 1, !range !4, !noundef !5
  %71 = trunc i8 %70 to i1
  br i1 %71, label %72, label %73

72:                                               ; preds = %64
  call void @RestoreTransactionCharacteristics(ptr noundef %4)
  br label %73

73:                                               ; preds = %72, %64
  %74 = load ptr, ptr %3, align 8
  %75 = call ptr @MemoryContextSwitchTo(ptr noundef %74)
  %76 = load ptr, ptr @_SPI_current, align 8
  %77 = getelementptr inbounds nuw %struct._SPI_connection, ptr %76, i32 0, i32 10
  store i8 0, ptr %77, align 1
  %78 = load ptr, ptr %9, align 8
  call void @ReThrowError(ptr noundef %78) #12
  unreachable

79:                                               ; preds = %59
  %80 = load i8, ptr %8, align 1, !range !4, !noundef !5
  %81 = trunc i8 %80 to i1
  br i1 %81, label %82, label %83

82:                                               ; preds = %79
  call void @pg_re_throw() #12
  unreachable

83:                                               ; preds = %79
  %84 = load ptr, ptr %5, align 8
  store ptr %84, ptr @PG_exception_stack, align 8
  %85 = load ptr, ptr %6, align 8
  store ptr %85, ptr @error_context_stack, align 8
  call void @llvm.lifetime.end.p0(i64 1, ptr %8) #9
  call void @llvm.lifetime.end.p0(i64 200, ptr %7) #9
  call void @llvm.lifetime.end.p0(i64 8, ptr %6) #9
  call void @llvm.lifetime.end.p0(i64 8, ptr %5) #9
  br label %86

86:                                               ; preds = %83
  br label %87

87:                                               ; preds = %86
  call void @llvm.lifetime.end.p0(i64 8, ptr %4) #9
  call void @llvm.lifetime.end.p0(i64 8, ptr %3) #9
  ret void
}