; Function Attrs: nounwind uwtable
define internal fastcc void @_SPI_commit(i1 noundef zeroext %0) unnamed_addr #0 {
  %2 = alloca %struct.SavedTransactionCharacteristics, align 4
  %3 = alloca [1 x %struct.__jmp_buf_tag], align 16
  %4 = load ptr, ptr @CurrentMemoryContext, align 8
  call void @llvm.lifetime.start.p0(i64 8, ptr nonnull %2) #15
  %5 = load ptr, ptr @_SPI_current, align 8
  %6 = getelementptr inbounds nuw i8, ptr %5, i64 72
  %7 = load i8, ptr %6, align 8, !range !4, !noundef !5
  %8 = trunc nuw i8 %7 to i1
  br i1 %8, label %9, label %13

9:                                                ; preds = %1
  %10 = call zeroext i1 @errstart_cold(i32 noundef 21, ptr noundef null) #14
  call void @llvm.assume(i1 %10)
  %11 = call i32 @errcode(i32 noundef 1282) #15
  %12 = call i32 (ptr, ...) @errmsg(ptr noundef nonnull @.str.53) #15
  call void @errfinish(ptr noundef nonnull @.str.1, i32 noundef 241, ptr noundef nonnull @__func__._SPI_commit) #15
  unreachable

13:                                               ; preds = %1
  %14 = call zeroext i1 @IsSubTransaction() #15
  br i1 %14, label %15, label %19

15:                                               ; preds = %13
  %16 = call zeroext i1 @errstart_cold(i32 noundef 21, ptr noundef null) #14
  call void @llvm.assume(i1 %16)
  %17 = call i32 @errcode(i32 noundef 1282) #15
  %18 = call i32 (ptr, ...) @errmsg(ptr noundef nonnull @.str.54) #15
  call void @errfinish(ptr noundef nonnull @.str.1, i32 noundef 256, ptr noundef nonnull @__func__._SPI_commit) #15
  unreachable

19:                                               ; preds = %13
  br i1 %0, label %20, label %21

20:                                               ; preds = %19
  call void @SaveTransactionCharacteristics(ptr noundef nonnull %2) #15
  br label %21

21:                                               ; preds = %19, %20
  %22 = load ptr, ptr @PG_exception_stack, align 8
  %23 = load ptr, ptr @error_context_stack, align 8
  call void @llvm.lifetime.start.p0(i64 200, ptr nonnull %3) #15
  %24 = call i32 @__sigsetjmp(ptr noundef nonnull %3, i32 noundef 0) #16
  %25 = icmp eq i32 %24, 0
  br i1 %25, label %26, label %33

26:                                               ; preds = %21
  store ptr %3, ptr @PG_exception_stack, align 8
  %27 = load ptr, ptr @_SPI_current, align 8
  %28 = getelementptr inbounds nuw i8, ptr %27, i64 73
  store i8 1, ptr %28, align 1
  call void @HoldPinnedPortals() #15
  call void @ForgetPortalSnapshots() #15
  call void @CommitTransactionCommand() #15
  call void @StartTransactionCommand() #15
  br i1 %0, label %29, label %30

29:                                               ; preds = %26
  call void @RestoreTransactionCharacteristics(ptr noundef nonnull %2) #15
  br label %30

30:                                               ; preds = %29, %26
  store ptr %4, ptr @CurrentMemoryContext, align 8
  %31 = load ptr, ptr @_SPI_current, align 8
  %32 = getelementptr inbounds nuw i8, ptr %31, i64 73
  store i8 0, ptr %32, align 1
  store ptr %22, ptr @PG_exception_stack, align 8
  store ptr %23, ptr @error_context_stack, align 8
  call void @llvm.lifetime.end.p0(i64 200, ptr nonnull %3) #15
  call void @llvm.lifetime.end.p0(i64 8, ptr nonnull %2) #15
  ret void

33:                                               ; preds = %21
  store ptr %22, ptr @PG_exception_stack, align 8
  store ptr %23, ptr @error_context_stack, align 8
  store ptr %4, ptr @CurrentMemoryContext, align 8
  %34 = call ptr @CopyErrorData() #15
  call void @FlushErrorState() #15
  call void @AbortCurrentTransaction() #15
  call void @StartTransactionCommand() #15
  br i1 %0, label %35, label %36

35:                                               ; preds = %33
  call void @RestoreTransactionCharacteristics(ptr noundef nonnull %2) #15
  br label %36

36:                                               ; preds = %35, %33
  store ptr %4, ptr @CurrentMemoryContext, align 8
  %37 = load ptr, ptr @_SPI_current, align 8
  %38 = getelementptr inbounds nuw i8, ptr %37, i64 73
  store i8 0, ptr %38, align 1
  call void @ReThrowError(ptr noundef %34) #17
  unreachable
}